target datalayout = "e-m:e-p270:32:32-p271:32:32-p272:64:64-i64:64-i128:128-f80:128-n8:16:32:64-S128"
target triple = "x86_64-pc-linux-gnu"

@.str.233 = private unnamed_addr constant [9 x i8] c"contrast\00", align 1
@.str.234 = private unnamed_addr constant [6 x i8] c"pivot\00", align 1
@.str.252 = private unnamed_addr constant [6 x i8] c"black\00", align 1
@.str.253 = private unnamed_addr constant [6 x i8] c"white\00", align 1

; Function Attrs: inlinehint mustprogress uwtable
define internal void @_ZN19OpenColorIO_v2_5dev12_GLOBAL__N_14saveERN4YAML7EmitterEPKcdd(ptr noundef nonnull align 8 dereferenceable(72) %0, ptr noundef %1, double noundef %2, double noundef %3) #6 {
  %5 = alloca ptr, align 8
  %6 = alloca ptr, align 8
  %7 = alloca double, align 8
  %8 = alloca double, align 8
  store ptr %0, ptr %5, align 8, !tbaa !60
  store ptr %1, ptr %6, align 8, !tbaa !10
  store double %2, ptr %7, align 8, !tbaa !64
  store double %3, ptr %8, align 8, !tbaa !64
  %9 = load double, ptr %7, align 8, !tbaa !64
  %10 = load double, ptr %8, align 8, !tbaa !64
  %11 = fcmp une double %9, %10
  br i1 %11, label %12, label %21

12:                                               ; preds = %4
  %13 = load ptr, ptr %5, align 8, !tbaa !60
  %14 = call noundef nonnull align 8 dereferenceable(72) ptr @_ZN4YAMLlsERNS_7EmitterENS_13EMITTER_MANIPE(ptr noundef nonnull align 8 dereferenceable(72) %13, i32 noundef 32)
  %15 = load ptr, ptr %6, align 8, !tbaa !10
  %16 = call noundef nonnull align 8 dereferenceable(72) ptr @_ZN4YAMLlsERNS_7EmitterEPKc(ptr noundef nonnull align 8 dereferenceable(72) %14, ptr noundef %15)
  %17 = call noundef nonnull align 8 dereferenceable(72) ptr @_ZN4YAMLlsERNS_7EmitterENS_13EMITTER_MANIPE(ptr noundef nonnull align 8 dereferenceable(72) %16, i32 noundef 33)
  %18 = call noundef nonnull align 8 dereferenceable(72) ptr @_ZN4YAMLlsERNS_7EmitterENS_13EMITTER_MANIPE(ptr noundef nonnull align 8 dereferenceable(72) %17, i32 noundef 28)
  %19 = load double, ptr %7, align 8, !tbaa !64
  %20 = call noundef nonnull align 8 dereferenceable(72) ptr @_ZN4YAMLlsERNS_7EmitterEd(ptr noundef nonnull align 8 dereferenceable(72) %18, double noundef %19)
  br label %21

21:                                               ; preds = %12, %4
  ret void
}

; Function Attrs: inlinehint mustprogress uwtable
define linkonce_odr hidden noundef nonnull align 8 dereferenceable(72) ptr @_ZN4YAMLlsERNS_7EmitterEd(ptr noundef nonnull align 8 dereferenceable(72) %0, double noundef %1) #6 comdat {
  %3 = alloca ptr, align 8
  %4 = alloca double, align 8
  store ptr %0, ptr %3, align 8, !tbaa !60
  store double %1, ptr %4, align 8, !tbaa !64
  %5 = load ptr, ptr %3, align 8, !tbaa !60
  %6 = load double, ptr %4, align 8, !tbaa !64
  %7 = call noundef nonnull align 8 dereferenceable(72) ptr @_ZN4YAML7Emitter15WriteStreamableIdEERS0_T_(ptr noundef nonnull align 8 dereferenceable(72) %5, double noundef %6)
  ret ptr %7
}

; Function Attrs: inlinehint mustprogress uwtable
define linkonce_odr hidden noundef nonnull align 8 dereferenceable(72) ptr @_ZN4YAMLlsERNS_7EmitterENS_13EMITTER_MANIPE(ptr noundef nonnull align 8 dereferenceable(72) %0, i32 noundef %1) #6 comdat {
  %3 = alloca ptr, align 8
  %4 = alloca i32, align 4
  store ptr %0, ptr %3, align 8, !tbaa !60
  store i32 %1, ptr %4, align 4, !tbaa !1120
  %5 = load ptr, ptr %3, align 8, !tbaa !60
  %6 = load i32, ptr %4, align 4, !tbaa !1120
  %7 = call noundef nonnull align 8 dereferenceable(72) ptr @_ZN4YAML7Emitter13SetLocalValueENS_13EMITTER_MANIPE(ptr noundef nonnull align 8 dereferenceable(72) %5, i32 noundef %6)
  ret ptr %7
}

; Function Attrs: inlinehint mustprogress uwtable
define internal void @_ZN19OpenColorIO_v2_5dev12_GLOBAL__N_19savePivotERN4YAML7EmitterEdbdddd(ptr noundef nonnull align 8 dereferenceable(72) %0, double noundef %1, i1 noundef zeroext %2, double noundef %3, double noundef %4, double noundef %5, double noundef %6) #6 {
  %8 = alloca ptr, align 8
  %9 = alloca double, align 8
  %10 = alloca i8, align 1
  %11 = alloca double, align 8
  %12 = alloca double, align 8
  %13 = alloca double, align 8
  %14 = alloca double, align 8
  store ptr %0, ptr %8, align 8, !tbaa !60
  store double %1, ptr %9, align 8, !tbaa !64
  %15 = zext i1 %2 to i8
  store i8 %15, ptr %10, align 1, !tbaa !21
  store double %3, ptr %11, align 8, !tbaa !64
  store double %4, ptr %12, align 8, !tbaa !64
  store double %5, ptr %13, align 8, !tbaa !64
  store double %6, ptr %14, align 8, !tbaa !64
  %16 = load i8, ptr %10, align 1, !tbaa !21, !range !23, !noundef !24
  %17 = trunc i8 %16 to i1
  br i1 %17, label %26, label %18

18:                                               ; preds = %7
  %19 = load double, ptr %11, align 8, !tbaa !64
  %20 = load double, ptr %12, align 8, !tbaa !64
  %21 = fcmp une double %19, %20
  br i1 %21, label %26, label %22

22:                                               ; preds = %18
  %23 = load double, ptr %13, align 8, !tbaa !64
  %24 = load double, ptr %14, align 8, !tbaa !64
  %25 = fcmp une double %23, %24
  br i1 %25, label %26, label %53

26:                                               ; preds = %22, %18, %7
  %27 = load ptr, ptr %8, align 8, !tbaa !60
  %28 = call noundef nonnull align 8 dereferenceable(72) ptr @_ZN4YAMLlsERNS_7EmitterENS_13EMITTER_MANIPE(ptr noundef nonnull align 8 dereferenceable(72) %27, i32 noundef 32)
  %29 = call noundef nonnull align 8 dereferenceable(72) ptr @_ZN4YAMLlsERNS_7EmitterEPKc(ptr noundef nonnull align 8 dereferenceable(72) %28, ptr noundef @.str.234)
  %30 = load ptr, ptr %8, align 8, !tbaa !60
  %31 = call noundef nonnull align 8 dereferenceable(72) ptr @_ZN4YAMLlsERNS_7EmitterENS_13EMITTER_MANIPE(ptr noundef nonnull align 8 dereferenceable(72) %30, i32 noundef 33)
  %32 = call noundef nonnull align 8 dereferenceable(72) ptr @_ZN4YAMLlsERNS_7EmitterENS_13EMITTER_MANIPE(ptr noundef nonnull align 8 dereferenceable(72) %31, i32 noundef 28)
  %33 = call noundef nonnull align 8 dereferenceable(72) ptr @_ZN4YAMLlsERNS_7EmitterENS_13EMITTER_MANIPE(ptr noundef nonnull align 8 dereferenceable(72) %32, i32 noundef 30)
  %34 = load i8, ptr %10, align 1, !tbaa !21, !range !23, !noundef !24
  %35 = trunc i8 %34 to i1
  br i1 %35, label %36, label %44

36:                                               ; preds = %26
  %37 = load ptr, ptr %8, align 8, !tbaa !60
  %38 = call noundef nonnull align 8 dereferenceable(72) ptr @_ZN4YAMLlsERNS_7EmitterENS_13EMITTER_MANIPE(ptr noundef nonnull align 8 dereferenceable(72) %37, i32 noundef 32)
  %39 = call noundef nonnull align 8 dereferenceable(72) ptr @_ZN4YAMLlsERNS_7EmitterEPKc(ptr noundef nonnull align 8 dereferenceable(72) %38, ptr noundef @.str.233)
  %40 = call noundef nonnull align 8 dereferenceable(72) ptr @_ZN4YAMLlsERNS_7EmitterENS_13EMITTER_MANIPE(ptr noundef nonnull align 8 dereferenceable(72) %39, i32 noundef 33)
  %41 = call noundef nonnull align 8 dereferenceable(72) ptr @_ZN4YAMLlsERNS_7EmitterENS_13EMITTER_MANIPE(ptr noundef nonnull align 8 dereferenceable(72) %40, i32 noundef 28)
  %42 = load double, ptr %9, align 8, !tbaa !64
  %43 = call noundef nonnull align 8 dereferenceable(72) ptr @_ZN4YAMLlsERNS_7EmitterEd(ptr noundef nonnull align 8 dereferenceable(72) %41, double noundef %42)
  br label %44

44:                                               ; preds = %36, %26
  %45 = load ptr, ptr %8, align 8, !tbaa !60
  %46 = load double, ptr %11, align 8, !tbaa !64
  %47 = load double, ptr %12, align 8, !tbaa !64
  call void @_ZN19OpenColorIO_v2_5dev12_GLOBAL__N_14saveERN4YAML7EmitterEPKcdd(ptr noundef nonnull align 8 dereferenceable(72) %45, ptr noundef @.str.252, double noundef %46, double noundef %47)
  %48 = load ptr, ptr %8, align 8, !tbaa !60
  %49 = load double, ptr %13, align 8, !tbaa !64
  %50 = load double, ptr %14, align 8, !tbaa !64
  call void @_ZN19OpenColorIO_v2_5dev12_GLOBAL__N_14saveERN4YAML7EmitterEPKcdd(ptr noundef nonnull align 8 dereferenceable(72) %48, ptr noundef @.str.253, double noundef %49, double noundef %50)
  %51 = load ptr, ptr %8, align 8, !tbaa !60
  %52 = call noundef nonnull align 8 dereferenceable(72) ptr @_ZN4YAMLlsERNS_7EmitterENS_13EMITTER_MANIPE(ptr noundef nonnull align 8 dereferenceable(72) %51, i32 noundef 31)
  br label %53

53:                                               ; preds = %44, %22
  ret void
}