; Function Attrs: inlinehint mustprogress uwtable
define internal fastcc void @_ZN19OpenColorIO_v2_5dev12_GLOBAL__N_19savePivotERN4YAML7EmitterEdbdddd(ptr noundef nonnull align 8 dereferenceable(72) %0, double noundef %1, i1 noundef zeroext %2, double noundef %3, double noundef %4, double noundef %5, double noundef %6) unnamed_addr #5 {
  %8 = fcmp une double %3, %4
  %or.cond = or i1 %2, %8
  %9 = fcmp une double %5, %6
  %or.cond16 = or i1 %or.cond, %9
  br i1 %or.cond16, label %10, label %36

10:                                               ; preds = %7
  %11 = tail call noundef nonnull align 8 dereferenceable(72) ptr @_ZN4YAML7Emitter13SetLocalValueENS_13EMITTER_MANIPE(ptr noundef nonnull align 8 dereferenceable(72) %0, i32 noundef 32)
  %12 = tail call noundef nonnull align 8 dereferenceable(72) ptr @_ZN4YAMLlsERNS_7EmitterEPKc(ptr noundef nonnull align 8 dereferenceable(72) %11, ptr noundef nonnull @.str.234)
  %13 = tail call noundef nonnull align 8 dereferenceable(72) ptr @_ZN4YAML7Emitter13SetLocalValueENS_13EMITTER_MANIPE(ptr noundef nonnull align 8 dereferenceable(72) %0, i32 noundef 33)
  %14 = tail call noundef nonnull align 8 dereferenceable(72) ptr @_ZN4YAML7Emitter13SetLocalValueENS_13EMITTER_MANIPE(ptr noundef nonnull align 8 dereferenceable(72) %13, i32 noundef 28)
  %15 = tail call noundef nonnull align 8 dereferenceable(72) ptr @_ZN4YAML7Emitter13SetLocalValueENS_13EMITTER_MANIPE(ptr noundef nonnull align 8 dereferenceable(72) %14, i32 noundef 30)
  br i1 %2, label %16, label %22

16:                                               ; preds = %10
  %17 = tail call noundef nonnull align 8 dereferenceable(72) ptr @_ZN4YAML7Emitter13SetLocalValueENS_13EMITTER_MANIPE(ptr noundef nonnull align 8 dereferenceable(72) %0, i32 noundef 32)
  %18 = tail call noundef nonnull align 8 dereferenceable(72) ptr @_ZN4YAMLlsERNS_7EmitterEPKc(ptr noundef nonnull align 8 dereferenceable(72) %17, ptr noundef nonnull @.str.233)
  %19 = tail call noundef nonnull align 8 dereferenceable(72) ptr @_ZN4YAML7Emitter13SetLocalValueENS_13EMITTER_MANIPE(ptr noundef nonnull align 8 dereferenceable(72) %18, i32 noundef 33)
  %20 = tail call noundef nonnull align 8 dereferenceable(72) ptr @_ZN4YAML7Emitter13SetLocalValueENS_13EMITTER_MANIPE(ptr noundef nonnull align 8 dereferenceable(72) %19, i32 noundef 28)
  %21 = tail call noundef nonnull align 8 dereferenceable(72) ptr @_ZN4YAML7Emitter15WriteStreamableIdEERS0_T_(ptr noundef nonnull align 8 dereferenceable(72) %20, double noundef %1)
  br label %22

22:                                               ; preds = %16, %10
  br i1 %8, label %23, label %_ZN19OpenColorIO_v2_5dev12_GLOBAL__N_14saveERN4YAML7EmitterEPKcdd.exit

23:                                               ; preds = %22
  %24 = tail call noundef nonnull align 8 dereferenceable(72) ptr @_ZN4YAML7Emitter13SetLocalValueENS_13EMITTER_MANIPE(ptr noundef nonnull align 8 dereferenceable(72) %0, i32 noundef 32)
  %25 = tail call noundef nonnull align 8 dereferenceable(72) ptr @_ZN4YAMLlsERNS_7EmitterEPKc(ptr noundef nonnull align 8 dereferenceable(72) %24, ptr noundef nonnull @.str.252)
  %26 = tail call noundef nonnull align 8 dereferenceable(72) ptr @_ZN4YAML7Emitter13SetLocalValueENS_13EMITTER_MANIPE(ptr noundef nonnull align 8 dereferenceable(72) %25, i32 noundef 33)
  %27 = tail call noundef nonnull align 8 dereferenceable(72) ptr @_ZN4YAML7Emitter13SetLocalValueENS_13EMITTER_MANIPE(ptr noundef nonnull align 8 dereferenceable(72) %26, i32 noundef 28)
  %28 = tail call noundef nonnull align 8 dereferenceable(72) ptr @_ZN4YAML7Emitter15WriteStreamableIdEERS0_T_(ptr noundef nonnull align 8 dereferenceable(72) %27, double noundef %3)
  br label %_ZN19OpenColorIO_v2_5dev12_GLOBAL__N_14saveERN4YAML7EmitterEPKcdd.exit

_ZN19OpenColorIO_v2_5dev12_GLOBAL__N_14saveERN4YAML7EmitterEPKcdd.exit: ; preds = %22, %23
  br i1 %9, label %29, label %_ZN19OpenColorIO_v2_5dev12_GLOBAL__N_14saveERN4YAML7EmitterEPKcdd.exit17

29:                                               ; preds = %_ZN19OpenColorIO_v2_5dev12_GLOBAL__N_14saveERN4YAML7EmitterEPKcdd.exit
  %30 = tail call noundef nonnull align 8 dereferenceable(72) ptr @_ZN4YAML7Emitter13SetLocalValueENS_13EMITTER_MANIPE(ptr noundef nonnull align 8 dereferenceable(72) %0, i32 noundef 32)
  %31 = tail call noundef nonnull align 8 dereferenceable(72) ptr @_ZN4YAMLlsERNS_7EmitterEPKc(ptr noundef nonnull align 8 dereferenceable(72) %30, ptr noundef nonnull @.str.253)
  %32 = tail call noundef nonnull align 8 dereferenceable(72) ptr @_ZN4YAML7Emitter13SetLocalValueENS_13EMITTER_MANIPE(ptr noundef nonnull align 8 dereferenceable(72) %31, i32 noundef 33)
  %33 = tail call noundef nonnull align 8 dereferenceable(72) ptr @_ZN4YAML7Emitter13SetLocalValueENS_13EMITTER_MANIPE(ptr noundef nonnull align 8 dereferenceable(72) %32, i32 noundef 28)
  %34 = tail call noundef nonnull align 8 dereferenceable(72) ptr @_ZN4YAML7Emitter15WriteStreamableIdEERS0_T_(ptr noundef nonnull align 8 dereferenceable(72) %33, double noundef %5)
  br label %_ZN19OpenColorIO_v2_5dev12_GLOBAL__N_14saveERN4YAML7EmitterEPKcdd.exit17

_ZN19OpenColorIO_v2_5dev12_GLOBAL__N_14saveERN4YAML7EmitterEPKcdd.exit17: ; preds = %_ZN19OpenColorIO_v2_5dev12_GLOBAL__N_14saveERN4YAML7EmitterEPKcdd.exit, %29
  %35 = tail call noundef nonnull align 8 dereferenceable(72) ptr @_ZN4YAML7Emitter13SetLocalValueENS_13EMITTER_MANIPE(ptr noundef nonnull align 8 dereferenceable(72) %0, i32 noundef 31)
  br label %36

36:                                               ; preds = %7, %_ZN19OpenColorIO_v2_5dev12_GLOBAL__N_14saveERN4YAML7EmitterEPKcdd.exit17
  ret void
}